target datalayout = "e-m:e-p270:32:32-p271:32:32-p272:64:64-i64:64-i128:128-f80:128-n8:16:32:64-S128"
target triple = "x86_64-unknown-linux-gnu"

%"class.std::basic_istream" = type { ptr, i64, %"class.std::basic_ios" }
%"class.std::basic_ios" = type { %"class.std::ios_base", ptr, i8, i8, ptr, ptr, ptr, ptr }
%"class.std::ios_base" = type { ptr, i64, i64, i32, i32, i32, ptr, %"struct.std::ios_base::_Words", [8 x %"struct.std::ios_base::_Words"], i32, ptr, %"class.std::locale" }
%"struct.std::ios_base::_Words" = type { ptr, i64 }
%"class.std::locale" = type { ptr }
%"class.std::basic_ostream" = type { ptr, %"class.std::basic_ios" }
%class.veloxtpFlexLexer = type <{ %class.FlexLexer.base, i32, i32, [4 x i8], ptr, %"class.std::basic_istream", %"class.std::basic_ostream", i8, [3 x i8], i32, ptr, i32, i32, i32, [4 x i8], i64, i64, ptr, i32, [4 x i8], ptr, ptr, ptr, ptr, ptr, i32, i32, i32, i32, i32, i32, i32, [4 x i8] }>
%class.FlexLexer.base = type <{ ptr, ptr, i32, i32, i32 }>
%class.FlexLexer = type <{ ptr, ptr, i32, i32, i32, [4 x i8] }>
%struct.yy_buffer_state = type { ptr, ptr, ptr, i32, i32, i32, i32, i32, i32, i32, i32, i32 }

@.str.8 = private unnamed_addr constant [49 x i8] c"out of dynamic memory in yyensure_buffer_stack()\00", align 1

; Function Attrs: mustprogress nounwind uwtable
define noundef ptr @_Z14veloxtpreallocPvm(ptr noundef %ptr, i64 noundef %size) #4 {
entry:
  %ptr.addr = alloca ptr, align 8
  %size.addr = alloca i64, align 8
  store ptr %ptr, ptr %ptr.addr, align 8
  store i64 %size, ptr %size.addr, align 8
  %0 = load ptr, ptr %ptr.addr, align 8
  %1 = load i64, ptr %size.addr, align 8
  %call = call ptr @realloc(ptr noundef %0, i64 noundef %1) #22
  ret ptr %call
}

; Function Attrs: mustprogress nounwind uwtable
define noundef ptr @_Z12veloxtpallocm(i64 noundef %size) #4 {
entry:
  %size.addr = alloca i64, align 8
  store i64 %size, ptr %size.addr, align 8
  %0 = load i64, ptr %size.addr, align 8
  %call = call noalias ptr @malloc(i64 noundef %0) #24
  ret ptr %call
}

; Function Attrs: mustprogress uwtable
define void @_ZN16veloxtpFlexLexer20yy_load_buffer_stateEv(ptr noundef nonnull align 8 dereferenceable(732) %this) #5 align 2 {
entry:
  %this.addr = alloca ptr, align 8
  store ptr %this, ptr %this.addr, align 8
  %this1 = load ptr, ptr %this.addr, align 8
  %yy_buffer_stack = getelementptr inbounds %class.veloxtpFlexLexer, ptr %this1, i32 0, i32 17
  %0 = load ptr, ptr %yy_buffer_stack, align 8
  %yy_buffer_stack_top = getelementptr inbounds %class.veloxtpFlexLexer, ptr %this1, i32 0, i32 15
  %1 = load i64, ptr %yy_buffer_stack_top, align 8
  %arrayidx = getelementptr inbounds ptr, ptr %0, i64 %1
  %2 = load ptr, ptr %arrayidx, align 8
  %yy_n_chars = getelementptr inbounds %struct.yy_buffer_state, ptr %2, i32 0, i32 4
  %3 = load i32, ptr %yy_n_chars, align 4
  %yy_n_chars2 = getelementptr inbounds %class.veloxtpFlexLexer, ptr %this1, i32 0, i32 9
  store i32 %3, ptr %yy_n_chars2, align 4
  %yy_buffer_stack3 = getelementptr inbounds %class.veloxtpFlexLexer, ptr %this1, i32 0, i32 17
  %4 = load ptr, ptr %yy_buffer_stack3, align 8
  %yy_buffer_stack_top4 = getelementptr inbounds %class.veloxtpFlexLexer, ptr %this1, i32 0, i32 15
  %5 = load i64, ptr %yy_buffer_stack_top4, align 8
  %arrayidx5 = getelementptr inbounds ptr, ptr %4, i64 %5
  %6 = load ptr, ptr %arrayidx5, align 8
  %yy_buf_pos = getelementptr inbounds %struct.yy_buffer_state, ptr %6, i32 0, i32 2
  %7 = load ptr, ptr %yy_buf_pos, align 8
  %yy_c_buf_p = getelementptr inbounds %class.veloxtpFlexLexer, ptr %this1, i32 0, i32 10
  store ptr %7, ptr %yy_c_buf_p, align 8
  %yytext = getelementptr inbounds %class.FlexLexer, ptr %this1, i32 0, i32 1
  store ptr %7, ptr %yytext, align 8
  %yyin = getelementptr inbounds %class.veloxtpFlexLexer, ptr %this1, i32 0, i32 5
  %vtable = load ptr, ptr %yyin, align 8
  %vbase.offset.ptr = getelementptr i8, ptr %vtable, i64 -24
  %vbase.offset = load i64, ptr %vbase.offset.ptr, align 8
  %add.ptr = getelementptr inbounds i8, ptr %yyin, i64 %vbase.offset
  %yy_buffer_stack6 = getelementptr inbounds %class.veloxtpFlexLexer, ptr %this1, i32 0, i32 17
  %8 = load ptr, ptr %yy_buffer_stack6, align 8
  %yy_buffer_stack_top7 = getelementptr inbounds %class.veloxtpFlexLexer, ptr %this1, i32 0, i32 15
  %9 = load i64, ptr %yy_buffer_stack_top7, align 8
  %arrayidx8 = getelementptr inbounds ptr, ptr %8, i64 %9
  %10 = load ptr, ptr %arrayidx8, align 8
  %yy_input_file = getelementptr inbounds %struct.yy_buffer_state, ptr %10, i32 0, i32 0
  %11 = load ptr, ptr %yy_input_file, align 8
  %call = call noundef ptr @_ZNSt9basic_iosIcSt11char_traitsIcEE5rdbufEPSt15basic_streambufIcS1_E(ptr noundef nonnull align 8 dereferenceable(264) %add.ptr, ptr noundef %11)
  %yy_c_buf_p9 = getelementptr inbounds %class.veloxtpFlexLexer, ptr %this1, i32 0, i32 10
  %12 = load ptr, ptr %yy_c_buf_p9, align 8
  %13 = load i8, ptr %12, align 1
  %yy_hold_char = getelementptr inbounds %class.veloxtpFlexLexer, ptr %this1, i32 0, i32 7
  store i8 %13, ptr %yy_hold_char, align 8
  ret void
}

; Function Attrs: mustprogress uwtable
define void @_ZN16veloxtpFlexLexer21yyensure_buffer_stackEv(ptr noundef nonnull align 8 dereferenceable(732) %this) #5 align 2 {
entry:
  %this.addr = alloca ptr, align 8
  %num_to_alloc = alloca i64, align 8
  %grow_size = alloca i64, align 8
  store ptr %this, ptr %this.addr, align 8
  %this1 = load ptr, ptr %this.addr, align 8
  %yy_buffer_stack = getelementptr inbounds %class.veloxtpFlexLexer, ptr %this1, i32 0, i32 17
  %0 = load ptr, ptr %yy_buffer_stack, align 8
  %tobool = icmp ne ptr %0, null
  br i1 %tobool, label %if.end8, label %if.then

if.then:                                          ; preds = %entry
  store i64 1, ptr %num_to_alloc, align 8
  %1 = load i64, ptr %num_to_alloc, align 8
  %mul = mul i64 %1, 8
  %call = call noundef ptr @_Z12veloxtpallocm(i64 noundef %mul)
  %yy_buffer_stack2 = getelementptr inbounds %class.veloxtpFlexLexer, ptr %this1, i32 0, i32 17
  store ptr %call, ptr %yy_buffer_stack2, align 8
  %yy_buffer_stack3 = getelementptr inbounds %class.veloxtpFlexLexer, ptr %this1, i32 0, i32 17
  %2 = load ptr, ptr %yy_buffer_stack3, align 8
  %tobool4 = icmp ne ptr %2, null
  br i1 %tobool4, label %if.end, label %if.then5

if.then5:                                         ; preds = %if.then
  %vtable = load ptr, ptr %this1, align 8
  %vfn = getelementptr inbounds ptr, ptr %vtable, i64 14
  %3 = load ptr, ptr %vfn, align 8
  call void %3(ptr noundef nonnull align 8 dereferenceable(732) %this1, ptr noundef @.str.8)
  br label %if.end

if.end:                                           ; preds = %if.then5, %if.then
  %yy_buffer_stack6 = getelementptr inbounds %class.veloxtpFlexLexer, ptr %this1, i32 0, i32 17
  %4 = load ptr, ptr %yy_buffer_stack6, align 8
  %5 = load i64, ptr %num_to_alloc, align 8
  %mul7 = mul i64 %5, 8
  call void @llvm.memset.p0.i64(ptr align 8 %4, i8 0, i64 %mul7, i1 false)
  %6 = load i64, ptr %num_to_alloc, align 8
  %yy_buffer_stack_max = getelementptr inbounds %class.veloxtpFlexLexer, ptr %this1, i32 0, i32 16
  store i64 %6, ptr %yy_buffer_stack_max, align 8
  %yy_buffer_stack_top = getelementptr inbounds %class.veloxtpFlexLexer, ptr %this1, i32 0, i32 15
  store i64 0, ptr %yy_buffer_stack_top, align 8
  br label %if.end27

if.end8:                                          ; preds = %entry
  %yy_buffer_stack_top9 = getelementptr inbounds %class.veloxtpFlexLexer, ptr %this1, i32 0, i32 15
  %7 = load i64, ptr %yy_buffer_stack_top9, align 8
  %yy_buffer_stack_max10 = getelementptr inbounds %class.veloxtpFlexLexer, ptr %this1, i32 0, i32 16
  %8 = load i64, ptr %yy_buffer_stack_max10, align 8
  %sub = sub i64 %8, 1
  %cmp = icmp uge i64 %7, %sub
  br i1 %cmp, label %if.then11, label %if.end27

if.then11:                                        ; preds = %if.end8
  store i64 8, ptr %grow_size, align 8
  %yy_buffer_stack_max12 = getelementptr inbounds %class.veloxtpFlexLexer, ptr %this1, i32 0, i32 16
  %9 = load i64, ptr %yy_buffer_stack_max12, align 8
  %10 = load i64, ptr %grow_size, align 8
  %add = add i64 %9, %10
  store i64 %add, ptr %num_to_alloc, align 8
  %yy_buffer_stack13 = getelementptr inbounds %class.veloxtpFlexLexer, ptr %this1, i32 0, i32 17
  %11 = load ptr, ptr %yy_buffer_stack13, align 8
  %12 = load i64, ptr %num_to_alloc, align 8
  %mul14 = mul i64 %12, 8
  %call15 = call noundef ptr @_Z14veloxtpreallocPvm(ptr noundef %11, i64 noundef %mul14)
  %yy_buffer_stack16 = getelementptr inbounds %class.veloxtpFlexLexer, ptr %this1, i32 0, i32 17
  store ptr %call15, ptr %yy_buffer_stack16, align 8
  %yy_buffer_stack17 = getelementptr inbounds %class.veloxtpFlexLexer, ptr %this1, i32 0, i32 17
  %13 = load ptr, ptr %yy_buffer_stack17, align 8
  %tobool18 = icmp ne ptr %13, null
  br i1 %tobool18, label %if.end22, label %if.then19

if.then19:                                        ; preds = %if.then11
  %vtable20 = load ptr, ptr %this1, align 8
  %vfn21 = getelementptr inbounds ptr, ptr %vtable20, i64 14
  %14 = load ptr, ptr %vfn21, align 8
  call void %14(ptr noundef nonnull align 8 dereferenceable(732) %this1, ptr noundef @.str.8)
  br label %if.end22

if.end22:                                         ; preds = %if.then19, %if.then11
  %yy_buffer_stack23 = getelementptr inbounds %class.veloxtpFlexLexer, ptr %this1, i32 0, i32 17
  %15 = load ptr, ptr %yy_buffer_stack23, align 8
  %yy_buffer_stack_max24 = getelementptr inbounds %class.veloxtpFlexLexer, ptr %this1, i32 0, i32 16
  %16 = load i64, ptr %yy_buffer_stack_max24, align 8
  %add.ptr = getelementptr inbounds ptr, ptr %15, i64 %16
  %17 = load i64, ptr %grow_size, align 8
  %mul25 = mul i64 %17, 8
  call void @llvm.memset.p0.i64(ptr align 8 %add.ptr, i8 0, i64 %mul25, i1 false)
  %18 = load i64, ptr %num_to_alloc, align 8
  %yy_buffer_stack_max26 = getelementptr inbounds %class.veloxtpFlexLexer, ptr %this1, i32 0, i32 16
  store i64 %18, ptr %yy_buffer_stack_max26, align 8
  br label %if.end27

if.end27:                                         ; preds = %if.end22, %if.end8, %if.end
  ret void
}

; Function Attrs: mustprogress uwtable
define void @_ZN16veloxtpFlexLexer9yyrestartERSi(ptr noundef nonnull align 8 dereferenceable(732) %this, ptr noundef nonnull align 8 dereferenceable(16) %input_file) unnamed_addr #5 align 2 {
entry:
  %this.addr = alloca ptr, align 8
  %input_file.addr = alloca ptr, align 8
  store ptr %this, ptr %this.addr, align 8
  store ptr %input_file, ptr %input_file.addr, align 8
  %this1 = load ptr, ptr %this.addr, align 8
  %yy_buffer_stack = getelementptr inbounds %class.veloxtpFlexLexer, ptr %this1, i32 0, i32 17
  %0 = load ptr, ptr %yy_buffer_stack, align 8
  %tobool = icmp ne ptr %0, null
  br i1 %tobool, label %cond.true, label %cond.false

cond.true:                                        ; preds = %entry
  %yy_buffer_stack2 = getelementptr inbounds %class.veloxtpFlexLexer, ptr %this1, i32 0, i32 17
  %1 = load ptr, ptr %yy_buffer_stack2, align 8
  %yy_buffer_stack_top = getelementptr inbounds %class.veloxtpFlexLexer, ptr %this1, i32 0, i32 15
  %2 = load i64, ptr %yy_buffer_stack_top, align 8
  %arrayidx = getelementptr inbounds ptr, ptr %1, i64 %2
  %3 = load ptr, ptr %arrayidx, align 8
  br label %cond.end

cond.false:                                       ; preds = %entry
  br label %cond.end

cond.end:                                         ; preds = %cond.false, %cond.true
  %cond = phi ptr [ %3, %cond.true ], [ null, %cond.false ]
  %tobool3 = icmp ne ptr %cond, null
  br i1 %tobool3, label %if.end, label %if.then

if.then:                                          ; preds = %cond.end
  call void @_ZN16veloxtpFlexLexer21yyensure_buffer_stackEv(ptr noundef nonnull align 8 dereferenceable(732) %this1)
  %yyin = getelementptr inbounds %class.veloxtpFlexLexer, ptr %this1, i32 0, i32 5
  %vtable = load ptr, ptr %this1, align 8
  %vfn = getelementptr inbounds ptr, ptr %vtable, i64 4
  %4 = load ptr, ptr %vfn, align 8
  %call = call noundef ptr %4(ptr noundef nonnull align 8 dereferenceable(732) %this1, ptr noundef nonnull align 8 dereferenceable(16) %yyin, i32 noundef 16384)
  %yy_buffer_stack4 = getelementptr inbounds %class.veloxtpFlexLexer, ptr %this1, i32 0, i32 17
  %5 = load ptr, ptr %yy_buffer_stack4, align 8
  %yy_buffer_stack_top5 = getelementptr inbounds %class.veloxtpFlexLexer, ptr %this1, i32 0, i32 15
  %6 = load i64, ptr %yy_buffer_stack_top5, align 8
  %arrayidx6 = getelementptr inbounds ptr, ptr %5, i64 %6
  store ptr %call, ptr %arrayidx6, align 8
  br label %if.end

if.end:                                           ; preds = %if.then, %cond.end
  %yy_buffer_stack7 = getelementptr inbounds %class.veloxtpFlexLexer, ptr %this1, i32 0, i32 17
  %7 = load ptr, ptr %yy_buffer_stack7, align 8
  %tobool8 = icmp ne ptr %7, null
  br i1 %tobool8, label %cond.true9, label %cond.false13

cond.true9:                                       ; preds = %if.end
  %yy_buffer_stack10 = getelementptr inbounds %class.veloxtpFlexLexer, ptr %this1, i32 0, i32 17
  %8 = load ptr, ptr %yy_buffer_stack10, align 8
  %yy_buffer_stack_top11 = getelementptr inbounds %class.veloxtpFlexLexer, ptr %this1, i32 0, i32 15
  %9 = load i64, ptr %yy_buffer_stack_top11, align 8
  %arrayidx12 = getelementptr inbounds ptr, ptr %8, i64 %9
  %10 = load ptr, ptr %arrayidx12, align 8
  br label %cond.end14

cond.false13:                                     ; preds = %if.end
  br label %cond.end14

cond.end14:                                       ; preds = %cond.false13, %cond.true9
  %cond15 = phi ptr [ %10, %cond.true9 ], [ null, %cond.false13 ]
  %11 = load ptr, ptr %input_file.addr, align 8
  call void @_ZN16veloxtpFlexLexer14yy_init_bufferEP15yy_buffer_stateRSi(ptr noundef nonnull align 8 dereferenceable(732) %this1, ptr noundef %cond15, ptr noundef nonnull align 8 dereferenceable(16) %11)
  call void @_ZN16veloxtpFlexLexer20yy_load_buffer_stateEv(ptr noundef nonnull align 8 dereferenceable(732) %this1)
  ret void
}