; Function Attrs: mustprogress uwtable
define void @_ZN16veloxtpFlexLexer9yyrestartERSi(ptr noundef nonnull align 8 dereferenceable(732) %this, ptr noundef nonnull align 8 dereferenceable(16) %input_file) unnamed_addr #4 align 2 {
entry:
  %yy_buffer_stack = getelementptr inbounds i8, ptr %this, i64 648
  %0 = load ptr, ptr %yy_buffer_stack, align 8
  %tobool.not = icmp eq ptr %0, null
  br i1 %tobool.not, label %if.then.i, label %cond.true

cond.true:                                        ; preds = %entry
  %yy_buffer_stack_top = getelementptr inbounds i8, ptr %this, i64 632
  %1 = load i64, ptr %yy_buffer_stack_top, align 8
  %arrayidx = getelementptr inbounds ptr, ptr %0, i64 %1
  %2 = load ptr, ptr %arrayidx, align 8
  %3 = icmp eq ptr %2, null
  br i1 %3, label %if.end8.i, label %cond.true9

if.then.i:                                        ; preds = %entry
  %call.i.i = tail call noalias noundef dereferenceable_or_null(8) ptr @malloc(i64 noundef 8) #32
  store ptr %call.i.i, ptr %yy_buffer_stack, align 8
  %tobool4.not.i = icmp eq ptr %call.i.i, null
  br i1 %tobool4.not.i, label %if.then5.i, label %if.end.i

if.then5.i:                                       ; preds = %if.then.i
  %vtable.i = load ptr, ptr %this, align 8
  %vfn.i = getelementptr inbounds i8, ptr %vtable.i, i64 112
  %4 = load ptr, ptr %vfn.i, align 8
  tail call void %4(ptr noundef nonnull align 8 dereferenceable(732) %this, ptr noundef nonnull @.str.8)
  %.pre7.i = load ptr, ptr %yy_buffer_stack, align 8
  br label %if.end.i

if.end.i:                                         ; preds = %if.then5.i, %if.then.i
  %5 = phi ptr [ %.pre7.i, %if.then5.i ], [ %call.i.i, %if.then.i ]
  store i64 0, ptr %5, align 8
  %yy_buffer_stack_max.i = getelementptr inbounds i8, ptr %this, i64 640
  store i64 1, ptr %yy_buffer_stack_max.i, align 8
  %yy_buffer_stack_top.i = getelementptr inbounds i8, ptr %this, i64 632
  store i64 0, ptr %yy_buffer_stack_top.i, align 8
  br label %if.end

if.end8.i:                                        ; preds = %cond.true
  %yy_buffer_stack_max10.i = getelementptr inbounds i8, ptr %this, i64 640
  %6 = load i64, ptr %yy_buffer_stack_max10.i, align 8
  %sub.i = add i64 %6, -1
  %cmp.not.i = icmp ult i64 %1, %sub.i
  br i1 %cmp.not.i, label %if.end, label %if.then11.i

if.then11.i:                                      ; preds = %if.end8.i
  %add.i = add i64 %6, 8
  %mul14.i = shl i64 %add.i, 3
  %call.i6.i = tail call noalias noundef ptr @realloc(ptr noundef nonnull %0, i64 noundef %mul14.i) #33
  store ptr %call.i6.i, ptr %yy_buffer_stack, align 8
  %tobool18.not.i = icmp eq ptr %call.i6.i, null
  br i1 %tobool18.not.i, label %if.then19.i, label %if.end22.i

if.then19.i:                                      ; preds = %if.then11.i
  %vtable20.i = load ptr, ptr %this, align 8
  %vfn21.i = getelementptr inbounds i8, ptr %vtable20.i, i64 112
  %7 = load ptr, ptr %vfn21.i, align 8
  tail call void %7(ptr noundef nonnull align 8 dereferenceable(732) %this, ptr noundef nonnull @.str.8)
  %.pre.i = load ptr, ptr %yy_buffer_stack, align 8
  br label %if.end22.i

if.end22.i:                                       ; preds = %if.then19.i, %if.then11.i
  %8 = phi ptr [ %.pre.i, %if.then19.i ], [ %call.i6.i, %if.then11.i ]
  %9 = load i64, ptr %yy_buffer_stack_max10.i, align 8
  %add.ptr.i = getelementptr inbounds ptr, ptr %8, i64 %9
  tail call void @llvm.memset.p0.i64(ptr noundef nonnull align 8 dereferenceable(64) %add.ptr.i, i8 0, i64 64, i1 false)
  store i64 %add.i, ptr %yy_buffer_stack_max10.i, align 8
  br label %if.end

if.end:                                           ; preds = %if.end22.i, %if.end8.i, %if.end.i
  %yyin = getelementptr inbounds i8, ptr %this, i64 48
  %vtable = load ptr, ptr %this, align 8
  %vfn = getelementptr inbounds i8, ptr %vtable, i64 32
  %10 = load ptr, ptr %vfn, align 8
  %call = tail call noundef ptr %10(ptr noundef nonnull align 8 dereferenceable(732) %this, ptr noundef nonnull align 8 dereferenceable(16) %yyin, i32 noundef 16384)
  %11 = load ptr, ptr %yy_buffer_stack, align 8
  %yy_buffer_stack_top5 = getelementptr inbounds i8, ptr %this, i64 632
  %12 = load i64, ptr %yy_buffer_stack_top5, align 8
  %arrayidx6 = getelementptr inbounds ptr, ptr %11, i64 %12
  store ptr %call, ptr %arrayidx6, align 8
  %.pre = load ptr, ptr %yy_buffer_stack, align 8
  %tobool8.not = icmp eq ptr %.pre, null
  br i1 %tobool8.not, label %cond.end14, label %cond.true9

cond.true9:                                       ; preds = %cond.true, %if.end
  %13 = phi ptr [ %.pre, %if.end ], [ %0, %cond.true ]
  %yy_buffer_stack_top11 = getelementptr inbounds i8, ptr %this, i64 632
  %14 = load i64, ptr %yy_buffer_stack_top11, align 8
  %arrayidx12 = getelementptr inbounds ptr, ptr %13, i64 %14
  %15 = load ptr, ptr %arrayidx12, align 8
  br label %cond.end14

cond.end14:                                       ; preds = %if.end, %cond.true9
  %cond15 = phi ptr [ %15, %cond.true9 ], [ null, %if.end ]
  tail call void @_ZN16veloxtpFlexLexer14yy_init_bufferEP15yy_buffer_stateRSi(ptr noundef nonnull align 8 dereferenceable(732) %this, ptr noundef %cond15, ptr noundef nonnull align 8 dereferenceable(16) %input_file)
  %16 = load ptr, ptr %yy_buffer_stack, align 8
  %yy_buffer_stack_top.i3 = getelementptr inbounds i8, ptr %this, i64 632
  %17 = load i64, ptr %yy_buffer_stack_top.i3, align 8
  %arrayidx.i = getelementptr inbounds ptr, ptr %16, i64 %17
  %18 = load ptr, ptr %arrayidx.i, align 8
  %yy_n_chars.i = getelementptr inbounds i8, ptr %18, i64 28
  %19 = load i32, ptr %yy_n_chars.i, align 4
  %yy_n_chars2.i = getelementptr inbounds i8, ptr %this, i64 604
  store i32 %19, ptr %yy_n_chars2.i, align 4
  %20 = load ptr, ptr %arrayidx.i, align 8
  %yy_buf_pos.i = getelementptr inbounds i8, ptr %20, i64 16
  %21 = load ptr, ptr %yy_buf_pos.i, align 8
  %yy_c_buf_p.i = getelementptr inbounds i8, ptr %this, i64 608
  store ptr %21, ptr %yy_c_buf_p.i, align 8
  %yytext.i = getelementptr inbounds i8, ptr %this, i64 8
  store ptr %21, ptr %yytext.i, align 8
  %yyin.i = getelementptr inbounds i8, ptr %this, i64 48
  %vtable.i4 = load ptr, ptr %yyin.i, align 8
  %vbase.offset.ptr.i = getelementptr i8, ptr %vtable.i4, i64 -24
  %vbase.offset.i = load i64, ptr %vbase.offset.ptr.i, align 8
  %add.ptr.i5 = getelementptr inbounds i8, ptr %yyin.i, i64 %vbase.offset.i
  %22 = load ptr, ptr %arrayidx.i, align 8
  %23 = load ptr, ptr %22, align 8
  %call.i = tail call noundef ptr @_ZNSt9basic_iosIcSt11char_traitsIcEE5rdbufEPSt15basic_streambufIcS1_E(ptr noundef nonnull align 8 dereferenceable(264) %add.ptr.i5, ptr noundef %23)
  %24 = load ptr, ptr %yy_c_buf_p.i, align 8
  %25 = load i8, ptr %24, align 1
  %yy_hold_char.i = getelementptr inbounds i8, ptr %this, i64 600
  store i8 %25, ptr %yy_hold_char.i, align 8
  ret void
}